target datalayout = "e-m:e-p270:32:32-p271:32:32-p272:64:64-i64:64-i128:128-f80:128-n8:16:32:64-S128"
target triple = "x86_64-pc-linux-gnu"

%struct.lua_State = type { i8, i8, i8, i8, i8, i8, i8, ptr, ptr, ptr, ptr, ptr, ptr, ptr, ptr, i32, i32, i16, i16, i32, ptr, ptr, ptr, ptr, ptr }
%struct.global_State = type { %struct.stringtable, ptr, ptr, i8, i8, ptr, ptr, ptr, i64, i64, i32, i32, i32, [40 x ptr], [40 x ptr], ptr, ptr, ptr, [256 x i64], ptr, %struct.UpVal, [11 x ptr], [11 x ptr], [21 x ptr], %struct.lua_TValue, %struct.lua_TValue, i32, ptr, i64, [4 x i64], %struct.lua_Callbacks, %struct.lua_ExecutionCallbacks, [128 x ptr], [128 x ptr], [128 x ptr], %struct.GCStats }
%struct.stringtable = type { ptr, i32, i32 }
%struct.UpVal = type { i8, i8, i8, i8, ptr, %union.anon }
%union.anon = type { %struct.anon }
%struct.anon = type { ptr, ptr, ptr }
%struct.lua_TValue = type { %union.Value, [1 x i32], i32 }
%union.Value = type { ptr }
%struct.lua_Callbacks = type { ptr, ptr, ptr, ptr, ptr, ptr, ptr, ptr, ptr }
%struct.lua_ExecutionCallbacks = type { ptr, ptr, ptr, ptr, ptr, ptr, ptr }
%struct.GCStats = type { [32 x i32], i32, i32, i64, i64, i64, double, double, double }
%struct.TString = type { i8, i8, i8, i16, ptr, i32, i32, [1 x i8] }

; Function Attrs: mustprogress uwtable
define hidden noundef ptr @_Z13luaS_bufstartP9lua_Statem(ptr noundef %0, i64 noundef %1) #2 {
  %3 = alloca ptr, align 8
  %4 = alloca i64, align 8
  %5 = alloca ptr, align 8
  store ptr %0, ptr %3, align 8
  store i64 %1, ptr %4, align 8
  %6 = load i64, ptr %4, align 8
  %7 = icmp ugt i64 %6, 1073741824
  br i1 %7, label %8, label %10

8:                                                ; preds = %2
  %9 = load ptr, ptr %3, align 8
  call void @_Z11luaM_toobigP9lua_State(ptr noundef %9) #6
  unreachable

10:                                               ; preds = %2
  %11 = load ptr, ptr %3, align 8
  %12 = load i64, ptr %4, align 8
  %13 = add i64 24, %12
  %14 = add i64 %13, 1
  %15 = load ptr, ptr %3, align 8
  %16 = getelementptr inbounds %struct.lua_State, ptr %15, i32 0, i32 4
  %17 = load i8, ptr %16, align 4
  %18 = call noundef ptr @_Z12luaM_newgco_P9lua_Statemh(ptr noundef %11, i64 noundef %14, i8 noundef zeroext %17)
  store ptr %18, ptr %5, align 8
  %19 = load ptr, ptr %3, align 8
  %20 = getelementptr inbounds %struct.lua_State, ptr %19, i32 0, i32 9
  %21 = load ptr, ptr %20, align 8
  %22 = getelementptr inbounds %struct.global_State, ptr %21, i32 0, i32 3
  %23 = load i8, ptr %22, align 8
  %24 = zext i8 %23 to i32
  %25 = and i32 %24, 3
  %26 = trunc i32 %25 to i8
  %27 = load ptr, ptr %5, align 8
  %28 = getelementptr inbounds %struct.TString, ptr %27, i32 0, i32 1
  store i8 %26, ptr %28, align 1
  %29 = load ptr, ptr %5, align 8
  %30 = getelementptr inbounds %struct.TString, ptr %29, i32 0, i32 0
  store i8 5, ptr %30, align 8
  %31 = load ptr, ptr %3, align 8
  %32 = getelementptr inbounds %struct.lua_State, ptr %31, i32 0, i32 4
  %33 = load i8, ptr %32, align 4
  %34 = load ptr, ptr %5, align 8
  %35 = getelementptr inbounds %struct.TString, ptr %34, i32 0, i32 2
  store i8 %33, ptr %35, align 2
  %36 = load ptr, ptr %5, align 8
  %37 = getelementptr inbounds %struct.TString, ptr %36, i32 0, i32 3
  store i16 -32768, ptr %37, align 4
  %38 = load ptr, ptr %5, align 8
  %39 = getelementptr inbounds %struct.TString, ptr %38, i32 0, i32 5
  store i32 0, ptr %39, align 8
  %40 = load i64, ptr %4, align 8
  %41 = trunc i64 %40 to i32
  %42 = load ptr, ptr %5, align 8
  %43 = getelementptr inbounds %struct.TString, ptr %42, i32 0, i32 6
  store i32 %41, ptr %43, align 4
  %44 = load ptr, ptr %5, align 8
  %45 = getelementptr inbounds %struct.TString, ptr %44, i32 0, i32 4
  store ptr null, ptr %45, align 8
  %46 = load ptr, ptr %5, align 8
  ret ptr %46
}