; Function Attrs: mustprogress uwtable
define hidden noundef ptr @_Z13luaS_bufstartP9lua_Statem(ptr noundef %0, i64 noundef %1) local_unnamed_addr #2 {
  %3 = icmp ugt i64 %1, 1073741824
  br i1 %3, label %4, label %5

4:                                                ; preds = %2
  tail call void @_Z11luaM_toobigP9lua_State(ptr noundef %0) #8
  unreachable

5:                                                ; preds = %2
  %6 = add nuw nsw i64 %1, 25
  %7 = getelementptr inbounds i8, ptr %0, i64 4
  %8 = load i8, ptr %7, align 4
  %9 = tail call noundef ptr @_Z12luaM_newgco_P9lua_Statemh(ptr noundef %0, i64 noundef %6, i8 noundef zeroext %8)
  %10 = getelementptr inbounds i8, ptr %0, i64 24
  %11 = load ptr, ptr %10, align 8
  %12 = getelementptr inbounds i8, ptr %11, i64 32
  %13 = load i8, ptr %12, align 8
  %14 = and i8 %13, 3
  %15 = getelementptr inbounds i8, ptr %9, i64 1
  store i8 %14, ptr %15, align 1
  store i8 5, ptr %9, align 8
  %16 = load i8, ptr %7, align 4
  %17 = getelementptr inbounds i8, ptr %9, i64 2
  store i8 %16, ptr %17, align 2
  %18 = getelementptr inbounds i8, ptr %9, i64 4
  store i16 -32768, ptr %18, align 4
  %19 = getelementptr inbounds i8, ptr %9, i64 16
  store i32 0, ptr %19, align 8
  %20 = trunc nuw nsw i64 %1 to i32
  %21 = getelementptr inbounds i8, ptr %9, i64 20
  store i32 %20, ptr %21, align 4
  %22 = getelementptr inbounds i8, ptr %9, i64 8
  store ptr null, ptr %22, align 8
  ret ptr %9
}